; Function Attrs: mustprogress uwtable
define hidden void @_ZN2cv3dnn36ReadTFNetParamsFromBinaryBufferOrDieEPKcmPN17opencv_tensorflow8GraphDefE(ptr noundef %0, i64 noundef %1, ptr noundef %2) local_unnamed_addr #3 personality ptr @__gxx_personality_v0 {
  %4 = alloca %"class.cv::dnn::GLogWrapper", align 8
  call void @llvm.lifetime.start.p0(i64 432, ptr nonnull %4) #13
  %5 = tail call noundef zeroext i1 @_ZN2cv3dnn25ReadProtoFromBinaryBufferEPKcmPN6google8protobuf7MessageE(ptr noundef %0, i64 noundef %1, ptr noundef %2)
  %6 = zext i1 %5 to i8
  store ptr @.str, ptr %4, align 8, !tbaa !3
  %7 = getelementptr inbounds nuw i8, ptr %4, i64 8
  store ptr @__func__._ZN2cv3dnn36ReadTFNetParamsFromBinaryBufferOrDieEPKcmPN17opencv_tensorflow8GraphDefE, ptr %7, align 8, !tbaa !23
  %8 = getelementptr inbounds nuw i8, ptr %4, i64 16
  store ptr @.str.1, ptr %8, align 8, !tbaa !24
  %9 = getelementptr inbounds nuw i8, ptr %4, i64 24
  store ptr @.str.4, ptr %9, align 8, !tbaa !25
  %10 = getelementptr inbounds nuw i8, ptr %4, i64 32
  store i32 48, ptr %10, align 8, !tbaa !26
  %11 = getelementptr inbounds nuw i8, ptr %4, i64 36
  store i8 %6, ptr %11, align 4, !tbaa !27
  %12 = getelementptr inbounds nuw i8, ptr %4, i64 37
  store i8 1, ptr %12, align 1, !tbaa !28
  %13 = getelementptr inbounds nuw i8, ptr %4, i64 40
  call void @_ZNSt7__cxx1118basic_stringstreamIcSt11char_traitsIcESaIcEEC1Ev(ptr noundef nonnull align 8 dereferenceable(128) %13)
  %14 = getelementptr inbounds nuw i8, ptr %4, i64 56
  br label %15

15:                                               ; preds = %_ZStlsISt11char_traitsIcEERSt13basic_ostreamIcT_ES5_PKc.exit, %3
  %16 = load i8, ptr %12, align 1, !tbaa !28, !range !29, !noundef !30
  %17 = trunc nuw i8 %16 to i1
  br i1 %17, label %43, label %18

18:                                               ; preds = %15
  %19 = load ptr, ptr @_ZTTNSt7__cxx1118basic_stringstreamIcSt11char_traitsIcESaIcEEE, align 8
  store ptr %19, ptr %13, align 8, !tbaa !31
  %20 = load ptr, ptr getelementptr inbounds nuw (i8, ptr @_ZTTNSt7__cxx1118basic_stringstreamIcSt11char_traitsIcESaIcEEE, i64 64), align 8
  %21 = getelementptr i8, ptr %19, i64 -24
  %22 = load i64, ptr %21, align 8
  %23 = getelementptr inbounds i8, ptr %13, i64 %22
  store ptr %20, ptr %23, align 8, !tbaa !31
  %24 = load ptr, ptr getelementptr inbounds nuw (i8, ptr @_ZTTNSt7__cxx1118basic_stringstreamIcSt11char_traitsIcESaIcEEE, i64 72), align 8
  store ptr %24, ptr %14, align 8, !tbaa !31
  %25 = getelementptr inbounds nuw i8, ptr %4, i64 64
  store ptr getelementptr inbounds nuw inrange(-16, 112) (i8, ptr @_ZTVNSt7__cxx1115basic_stringbufIcSt11char_traitsIcESaIcEEE, i64 16), ptr %25, align 8, !tbaa !31
  %26 = getelementptr inbounds nuw i8, ptr %4, i64 136
  %27 = load ptr, ptr %26, align 8, !tbaa !42
  %28 = getelementptr inbounds nuw i8, ptr %4, i64 152
  %29 = icmp eq ptr %27, %28
  br i1 %29, label %_ZNKSt7__cxx1112basic_stringIcSt11char_traitsIcESaIcEE11_M_is_localEv.exit.thread.i.i.i.i.i.i, label %_ZNKSt7__cxx1112basic_stringIcSt11char_traitsIcESaIcEE11_M_is_localEv.exit.i.i.i.i.i.i

_ZNKSt7__cxx1112basic_stringIcSt11char_traitsIcESaIcEE11_M_is_localEv.exit.thread.i.i.i.i.i.i: ; preds = %18
  %30 = getelementptr inbounds nuw i8, ptr %4, i64 144
  %31 = load i64, ptr %30, align 8, !tbaa !43
  %32 = icmp ult i64 %31, 16
  call void @llvm.assume(i1 %32)
  br label %_ZN2cv3dnn11GLogWrapperD2Ev.exit

_ZNKSt7__cxx1112basic_stringIcSt11char_traitsIcESaIcEE11_M_is_localEv.exit.i.i.i.i.i.i: ; preds = %18
  call void @_ZdlPv(ptr noundef %27) #14
  br label %_ZN2cv3dnn11GLogWrapperD2Ev.exit

_ZN2cv3dnn11GLogWrapperD2Ev.exit:                 ; preds = %_ZNKSt7__cxx1112basic_stringIcSt11char_traitsIcESaIcEE11_M_is_localEv.exit.thread.i.i.i.i.i.i, %_ZNKSt7__cxx1112basic_stringIcSt11char_traitsIcESaIcEE11_M_is_localEv.exit.i.i.i.i.i.i
  store ptr getelementptr inbounds nuw inrange(-16, 112) (i8, ptr @_ZTVSt15basic_streambufIcSt11char_traitsIcEE, i64 16), ptr %25, align 8, !tbaa !31
  %33 = getelementptr inbounds nuw i8, ptr %4, i64 120
  call void @_ZNSt6localeD1Ev(ptr noundef nonnull align 8 dereferenceable(8) %33) #13
  %34 = load ptr, ptr getelementptr inbounds nuw (i8, ptr @_ZTTNSt7__cxx1118basic_stringstreamIcSt11char_traitsIcESaIcEEE, i64 16), align 8
  store ptr %34, ptr %13, align 8, !tbaa !31
  %35 = load ptr, ptr getelementptr inbounds nuw (i8, ptr @_ZTTNSt7__cxx1118basic_stringstreamIcSt11char_traitsIcESaIcEEE, i64 24), align 8
  %36 = getelementptr i8, ptr %34, i64 -24
  %37 = load i64, ptr %36, align 8
  %38 = getelementptr inbounds i8, ptr %13, i64 %37
  store ptr %35, ptr %38, align 8, !tbaa !31
  %39 = getelementptr inbounds nuw i8, ptr %4, i64 48
  store i64 0, ptr %39, align 8, !tbaa !44
  %40 = getelementptr inbounds nuw i8, ptr %4, i64 168
  call void @_ZNSt8ios_baseD2Ev(ptr noundef nonnull align 8 dereferenceable(264) %40) #13
  call void @llvm.lifetime.end.p0(i64 432, ptr nonnull %4) #13
  ret void

41:                                               ; preds = %43, %_ZStlsISt11char_traitsIcEERSt13basic_ostreamIcT_ES5_PKc.exit
  %42 = landingpad { ptr, i32 }
          cleanup
  call void @_ZN2cv3dnn11GLogWrapperD2Ev(ptr noundef nonnull align 8 dereferenceable(432) %4) #13
  call void @llvm.lifetime.end.p0(i64 432, ptr nonnull %4) #13
  resume { ptr, i32 } %42

43:                                               ; preds = %15
  %44 = invoke noundef nonnull align 8 dereferenceable(8) ptr @_ZSt16__ostream_insertIcSt11char_traitsIcEERSt13basic_ostreamIT_T0_ES6_PKS3_l(ptr noundef nonnull align 8 dereferenceable(8) %14, ptr noundef nonnull @.str.5, i64 noundef 31)
          to label %_ZStlsISt11char_traitsIcEERSt13basic_ostreamIcT_ES5_PKc.exit unwind label %41

_ZStlsISt11char_traitsIcEERSt13basic_ostreamIcT_ES5_PKc.exit: ; preds = %43
  invoke void @_ZN2cv3dnn11GLogWrapper5checkEv(ptr noundef nonnull align 8 dereferenceable(432) %4)
          to label %15 unwind label %41, !llvm.loop !45
}